; Function Attrs: mustprogress nounwind uwtable
define dso_local void @_ZN4llvm5XCOFF28getExtendedTBTableFlagStringEh(ptr dead_on_unwind noalias nonnull writable sret(%"class.llvm::SmallString") align 8 %0, i8 noundef zeroext %1) local_unnamed_addr #1 {
  %3 = getelementptr inbounds i8, ptr %0, i64 24
  tail call void @_ZN4llvm15SmallVectorBaseImEC2EPvm(ptr noundef nonnull align 8 dereferenceable(24) %0, ptr noundef nonnull %3, i64 noundef 32) #11
  %4 = zext i8 %1 to i32
  %.not = icmp sgt i8 %1, -1
  br i1 %.not, label %6, label %5

5:                                                ; preds = %2
  tail call void @_ZN4llvm15SmallVectorImplIcE6appendIPKcvEEvT_S5_(ptr noundef nonnull align 8 dereferenceable(24) %0, ptr noundef nonnull @.str.66, ptr noundef nonnull getelementptr inbounds (i8, ptr @.str.66, i64 7))
  br label %6

6:                                                ; preds = %5, %2
  %7 = and i32 %4, 64
  %.not7 = icmp eq i32 %7, 0
  br i1 %.not7, label %9, label %8

8:                                                ; preds = %6
  tail call void @_ZN4llvm15SmallVectorImplIcE6appendIPKcvEEvT_S5_(ptr noundef nonnull align 8 dereferenceable(24) %0, ptr noundef nonnull @.str.67, ptr noundef nonnull getelementptr inbounds (i8, ptr @.str.67, i64 12))
  br label %9

9:                                                ; preds = %8, %6
  %10 = and i32 %4, 32
  %.not8 = icmp eq i32 %10, 0
  br i1 %.not8, label %12, label %11

11:                                               ; preds = %9
  tail call void @_ZN4llvm15SmallVectorImplIcE6appendIPKcvEEvT_S5_(ptr noundef nonnull align 8 dereferenceable(24) %0, ptr noundef nonnull @.str.68, ptr noundef nonnull getelementptr inbounds (i8, ptr @.str.68, i64 14))
  br label %12

12:                                               ; preds = %11, %9
  %13 = and i32 %4, 16
  %.not9 = icmp eq i32 %13, 0
  br i1 %.not9, label %15, label %14

14:                                               ; preds = %12
  tail call void @_ZN4llvm15SmallVectorImplIcE6appendIPKcvEEvT_S5_(ptr noundef nonnull align 8 dereferenceable(24) %0, ptr noundef nonnull @.str.69, ptr noundef nonnull getelementptr inbounds (i8, ptr @.str.69, i64 7))
  br label %15

15:                                               ; preds = %14, %12
  %16 = and i32 %4, 8
  %.not10 = icmp eq i32 %16, 0
  br i1 %.not10, label %18, label %17

17:                                               ; preds = %15
  tail call void @_ZN4llvm15SmallVectorImplIcE6appendIPKcvEEvT_S5_(ptr noundef nonnull align 8 dereferenceable(24) %0, ptr noundef nonnull @.str.70, ptr noundef nonnull getelementptr inbounds (i8, ptr @.str.70, i64 11))
  br label %18

18:                                               ; preds = %17, %15
  %19 = and i32 %4, 1
  %.not11 = icmp eq i32 %19, 0
  br i1 %.not11, label %21, label %20

20:                                               ; preds = %18
  tail call void @_ZN4llvm15SmallVectorImplIcE6appendIPKcvEEvT_S5_(ptr noundef nonnull align 8 dereferenceable(24) %0, ptr noundef nonnull @.str.71, ptr noundef nonnull getelementptr inbounds (i8, ptr @.str.71, i64 16))
  br label %21

21:                                               ; preds = %20, %18
  %22 = and i32 %4, 6
  %.not12 = icmp eq i32 %22, 0
  br i1 %.not12, label %24, label %23

23:                                               ; preds = %21
  tail call void @_ZN4llvm15SmallVectorImplIcE6appendIPKcvEEvT_S5_(ptr noundef nonnull align 8 dereferenceable(24) %0, ptr noundef nonnull @.str.72, ptr noundef nonnull getelementptr inbounds (i8, ptr @.str.72, i64 8))
  br label %24

24:                                               ; preds = %23, %21
  %25 = tail call noundef i64 @_ZNK4llvm15SmallVectorBaseImE4sizeEv(ptr noundef nonnull align 8 dereferenceable(24) %0) #11
  %26 = add i64 %25, -1
  tail call void @_ZN4llvm15SmallVectorBaseImE8set_sizeEm(ptr noundef nonnull align 8 dereferenceable(24) %0, i64 noundef %26) #11
  ret void
}